target datalayout = "e-m:e-p270:32:32-p271:32:32-p272:64:64-i64:64-i128:128-f80:128-n8:16:32:64-S128"
target triple = "x86_64-pc-linux-gnu"

@hf_smpp_service_type = internal global i32 0, align 4
@hf_smpp_source_addr_ton = internal global i32 0, align 4
@hf_smpp_dest_addr_ton = internal global i32 0, align 4
@hf_smpp_source_addr_npi = internal global i32 0, align 4
@hf_smpp_dest_addr_npi = internal global i32 0, align 4
@hf_smpp_source_addr = internal global i32 0, align 4
@hf_smpp_destination_addr = internal global i32 0, align 4
@hf_smpp_message_id = internal global i32 0, align 4
@.str.967 = private unnamed_addr constant [10 x i8] c"(Default)\00", align 1

; Function Attrs: null_pointer_is_valid sspstrong uwtable
define internal void @smpp_handle_string(ptr noundef %0, ptr noundef %1, i32 noundef %2, ptr noundef %3) #0 {
  %5 = alloca ptr, align 8
  %6 = alloca ptr, align 8
  %7 = alloca i32, align 4
  %8 = alloca ptr, align 8
  %9 = alloca i32, align 4
  store ptr %0, ptr %5, align 8
  store ptr %1, ptr %6, align 8
  store i32 %2, ptr %7, align 4
  store ptr %3, ptr %8, align 8
  call void @llvm.lifetime.start.p0(i64 4, ptr %9) #10
  %10 = load ptr, ptr %6, align 8
  %11 = load ptr, ptr %8, align 8
  %12 = load i32, ptr %11, align 4
  %13 = call i32 @tvb_strsize(ptr noundef %10, i32 noundef %12)
  store i32 %13, ptr %9, align 4
  %14 = load i32, ptr %9, align 4
  %15 = icmp ugt i32 %14, 1
  br i1 %15, label %16, label %24

16:                                               ; preds = %4
  %17 = load ptr, ptr %5, align 8
  %18 = load i32, ptr %7, align 4
  %19 = load ptr, ptr %6, align 8
  %20 = load ptr, ptr %8, align 8
  %21 = load i32, ptr %20, align 4
  %22 = load i32, ptr %9, align 4
  %23 = call ptr @proto_tree_add_item(ptr noundef %17, i32 noundef %18, ptr noundef %19, i32 noundef %21, i32 noundef %22, i32 noundef 0)
  br label %24

24:                                               ; preds = %16, %4
  %25 = load i32, ptr %9, align 4
  %26 = load ptr, ptr %8, align 8
  %27 = load i32, ptr %26, align 4
  %28 = add i32 %27, %25
  store i32 %28, ptr %26, align 4
  call void @llvm.lifetime.end.p0(i64 4, ptr %9) #10
  ret void
}

; Function Attrs: null_pointer_is_valid sspstrong uwtable
define internal void @smpp_handle_string_z(ptr noundef %0, ptr noundef %1, i32 noundef %2, ptr noundef %3, ptr noundef %4) #0 {
  %6 = alloca ptr, align 8
  %7 = alloca ptr, align 8
  %8 = alloca i32, align 4
  %9 = alloca ptr, align 8
  %10 = alloca ptr, align 8
  %11 = alloca i32, align 4
  store ptr %0, ptr %6, align 8
  store ptr %1, ptr %7, align 8
  store i32 %2, ptr %8, align 4
  store ptr %3, ptr %9, align 8
  store ptr %4, ptr %10, align 8
  call void @llvm.lifetime.start.p0(i64 4, ptr %11) #10
  %12 = load ptr, ptr %7, align 8
  %13 = load ptr, ptr %9, align 8
  %14 = load i32, ptr %13, align 4
  %15 = call i32 @tvb_strsize(ptr noundef %12, i32 noundef %14)
  store i32 %15, ptr %11, align 4
  %16 = load i32, ptr %11, align 4
  %17 = icmp sgt i32 %16, 1
  br i1 %17, label %18, label %26

18:                                               ; preds = %5
  %19 = load ptr, ptr %6, align 8
  %20 = load i32, ptr %8, align 4
  %21 = load ptr, ptr %7, align 8
  %22 = load ptr, ptr %9, align 8
  %23 = load i32, ptr %22, align 4
  %24 = load i32, ptr %11, align 4
  %25 = call ptr @proto_tree_add_item(ptr noundef %19, i32 noundef %20, ptr noundef %21, i32 noundef %23, i32 noundef %24, i32 noundef 0)
  br label %35

26:                                               ; preds = %5
  %27 = load ptr, ptr %6, align 8
  %28 = load i32, ptr %8, align 4
  %29 = load ptr, ptr %7, align 8
  %30 = load ptr, ptr %9, align 8
  %31 = load i32, ptr %30, align 4
  %32 = load i32, ptr %11, align 4
  %33 = load ptr, ptr %10, align 8
  %34 = call ptr @proto_tree_add_string(ptr noundef %27, i32 noundef %28, ptr noundef %29, i32 noundef %31, i32 noundef %32, ptr noundef %33)
  br label %35

35:                                               ; preds = %26, %18
  %36 = load i32, ptr %11, align 4
  %37 = load ptr, ptr %9, align 8
  %38 = load i32, ptr %37, align 4
  %39 = add i32 %38, %36
  store i32 %39, ptr %37, align 4
  call void @llvm.lifetime.end.p0(i64 4, ptr %11) #10
  ret void
}

; Function Attrs: null_pointer_is_valid sspstrong uwtable
define internal void @cancel_sm(ptr noundef %0, ptr noundef %1, i32 noundef %2) #0 {
  %4 = alloca ptr, align 8
  %5 = alloca ptr, align 8
  %6 = alloca i32, align 4
  store ptr %0, ptr %4, align 8
  store ptr %1, ptr %5, align 8
  store i32 %2, ptr %6, align 4
  %7 = load ptr, ptr %4, align 8
  %8 = load ptr, ptr %5, align 8
  %9 = load i32, ptr @hf_smpp_service_type, align 4
  call void @smpp_handle_string_z(ptr noundef %7, ptr noundef %8, i32 noundef %9, ptr noundef %6, ptr noundef @.str.967)
  %10 = load ptr, ptr %4, align 8
  %11 = load ptr, ptr %5, align 8
  %12 = load i32, ptr @hf_smpp_message_id, align 4
  call void @smpp_handle_string(ptr noundef %10, ptr noundef %11, i32 noundef %12, ptr noundef %6)
  %13 = load ptr, ptr %4, align 8
  %14 = load i32, ptr @hf_smpp_source_addr_ton, align 4
  %15 = load ptr, ptr %5, align 8
  %16 = load i32, ptr %6, align 4
  %17 = call ptr @proto_tree_add_item(ptr noundef %13, i32 noundef %14, ptr noundef %15, i32 noundef %16, i32 noundef 1, i32 noundef 0)
  %18 = load i32, ptr %6, align 4
  %19 = add i32 %18, 1
  store i32 %19, ptr %6, align 4
  %20 = load ptr, ptr %4, align 8
  %21 = load i32, ptr @hf_smpp_source_addr_npi, align 4
  %22 = load ptr, ptr %5, align 8
  %23 = load i32, ptr %6, align 4
  %24 = call ptr @proto_tree_add_item(ptr noundef %20, i32 noundef %21, ptr noundef %22, i32 noundef %23, i32 noundef 1, i32 noundef 0)
  %25 = load i32, ptr %6, align 4
  %26 = add i32 %25, 1
  store i32 %26, ptr %6, align 4
  %27 = load ptr, ptr %4, align 8
  %28 = load ptr, ptr %5, align 8
  %29 = load i32, ptr @hf_smpp_source_addr, align 4
  call void @smpp_handle_string(ptr noundef %27, ptr noundef %28, i32 noundef %29, ptr noundef %6)
  %30 = load ptr, ptr %4, align 8
  %31 = load i32, ptr @hf_smpp_dest_addr_ton, align 4
  %32 = load ptr, ptr %5, align 8
  %33 = load i32, ptr %6, align 4
  %34 = call ptr @proto_tree_add_item(ptr noundef %30, i32 noundef %31, ptr noundef %32, i32 noundef %33, i32 noundef 1, i32 noundef 0)
  %35 = load i32, ptr %6, align 4
  %36 = add i32 %35, 1
  store i32 %36, ptr %6, align 4
  %37 = load ptr, ptr %4, align 8
  %38 = load i32, ptr @hf_smpp_dest_addr_npi, align 4
  %39 = load ptr, ptr %5, align 8
  %40 = load i32, ptr %6, align 4
  %41 = call ptr @proto_tree_add_item(ptr noundef %37, i32 noundef %38, ptr noundef %39, i32 noundef %40, i32 noundef 1, i32 noundef 0)
  %42 = load i32, ptr %6, align 4
  %43 = add i32 %42, 1
  store i32 %43, ptr %6, align 4
  %44 = load ptr, ptr %4, align 8
  %45 = load ptr, ptr %5, align 8
  %46 = load i32, ptr @hf_smpp_destination_addr, align 4
  call void @smpp_handle_string(ptr noundef %44, ptr noundef %45, i32 noundef %46, ptr noundef %6)
  ret void
}