; Function Attrs: null_pointer_is_valid sspstrong uwtable
define internal fastcc void @cancel_sm(ptr noundef %0, ptr noundef %1) unnamed_addr #0 {
  %3 = load i32, ptr @hf_smpp_service_type, align 4
  %4 = tail call i32 @tvb_strsize(ptr noundef %1, i32 noundef 16)
  %5 = icmp sgt i32 %4, 1
  br i1 %5, label %6, label %8

6:                                                ; preds = %2
  %7 = tail call ptr @proto_tree_add_item(ptr noundef %0, i32 noundef %3, ptr noundef %1, i32 noundef 16, i32 noundef %4, i32 noundef 0)
  br label %smpp_handle_string_z.exit

8:                                                ; preds = %2
  %9 = tail call ptr @proto_tree_add_string(ptr noundef %0, i32 noundef %3, ptr noundef %1, i32 noundef 16, i32 noundef %4, ptr noundef nonnull @.str.967)
  br label %smpp_handle_string_z.exit

smpp_handle_string_z.exit:                        ; preds = %6, %8
  %10 = add i32 %4, 16
  %11 = load i32, ptr @hf_smpp_message_id, align 4
  %12 = tail call i32 @tvb_strsize(ptr noundef %1, i32 noundef %10)
  %13 = icmp ugt i32 %12, 1
  br i1 %13, label %14, label %smpp_handle_string.exit

14:                                               ; preds = %smpp_handle_string_z.exit
  %15 = tail call ptr @proto_tree_add_item(ptr noundef %0, i32 noundef %11, ptr noundef %1, i32 noundef %10, i32 noundef %12, i32 noundef 0)
  br label %smpp_handle_string.exit

smpp_handle_string.exit:                          ; preds = %smpp_handle_string_z.exit, %14
  %16 = add i32 %12, %10
  %17 = load i32, ptr @hf_smpp_source_addr_ton, align 4
  %18 = tail call ptr @proto_tree_add_item(ptr noundef %0, i32 noundef %17, ptr noundef %1, i32 noundef %16, i32 noundef 1, i32 noundef 0)
  %19 = add i32 %16, 1
  %20 = load i32, ptr @hf_smpp_source_addr_npi, align 4
  %21 = tail call ptr @proto_tree_add_item(ptr noundef %0, i32 noundef %20, ptr noundef %1, i32 noundef %19, i32 noundef 1, i32 noundef 0)
  %22 = add i32 %16, 2
  %23 = load i32, ptr @hf_smpp_source_addr, align 4
  %24 = tail call i32 @tvb_strsize(ptr noundef %1, i32 noundef %22)
  %25 = icmp ugt i32 %24, 1
  br i1 %25, label %26, label %smpp_handle_string.exit16

26:                                               ; preds = %smpp_handle_string.exit
  %27 = tail call ptr @proto_tree_add_item(ptr noundef %0, i32 noundef %23, ptr noundef %1, i32 noundef %22, i32 noundef %24, i32 noundef 0)
  br label %smpp_handle_string.exit16

smpp_handle_string.exit16:                        ; preds = %smpp_handle_string.exit, %26
  %28 = add i32 %24, %22
  %29 = load i32, ptr @hf_smpp_dest_addr_ton, align 4
  %30 = tail call ptr @proto_tree_add_item(ptr noundef %0, i32 noundef %29, ptr noundef %1, i32 noundef %28, i32 noundef 1, i32 noundef 0)
  %31 = add i32 %28, 1
  %32 = load i32, ptr @hf_smpp_dest_addr_npi, align 4
  %33 = tail call ptr @proto_tree_add_item(ptr noundef %0, i32 noundef %32, ptr noundef %1, i32 noundef %31, i32 noundef 1, i32 noundef 0)
  %34 = add i32 %28, 2
  %35 = load i32, ptr @hf_smpp_destination_addr, align 4
  %36 = tail call i32 @tvb_strsize(ptr noundef %1, i32 noundef %34)
  %37 = icmp ugt i32 %36, 1
  br i1 %37, label %38, label %smpp_handle_string.exit17

38:                                               ; preds = %smpp_handle_string.exit16
  %39 = tail call ptr @proto_tree_add_item(ptr noundef %0, i32 noundef %35, ptr noundef %1, i32 noundef %34, i32 noundef %36, i32 noundef 0)
  br label %smpp_handle_string.exit17

smpp_handle_string.exit17:                        ; preds = %smpp_handle_string.exit16, %38
  ret void
}